; Function Attrs: mustprogress nofree norecurse nosync nounwind willreturn memory(argmem: read) uwtable
define hidden noundef zeroext i1 @_ZN19OpenColorIO_v2_5dev14VecContainsOneEPKfi(ptr noundef readonly captures(none) %0, i32 noundef %1) local_unnamed_addr #6 {
  %.not9 = icmp sgt i32 %1, 0
  br i1 %.not9, label %.lr.ph.preheader, label %_ZN19OpenColorIO_v2_5dev18IsScalarEqualToOneIfEEbT_.exit._crit_edge

.lr.ph.preheader:                                 ; preds = %2
  %wide.trip.count = zext nneg i32 %1 to i64
  br label %.lr.ph

.lr.ph:                                           ; preds = %.lr.ph.preheader, %_ZN19OpenColorIO_v2_5dev18IsScalarEqualToOneIfEEbT_.exit.thread
  %indvars.iv = phi i64 [ 0, %.lr.ph.preheader ], [ %indvars.iv.next, %_ZN19OpenColorIO_v2_5dev18IsScalarEqualToOneIfEEbT_.exit.thread ]
  %3 = getelementptr inbounds nuw float, ptr %0, i64 %indvars.iv
  %4 = load float, ptr %3, align 4, !tbaa !5
  %5 = bitcast float %4 to i32
  %6 = and i32 %5, 2139095040
  %7 = icmp eq i32 %6, 2139095040
  br i1 %7, label %_ZN19OpenColorIO_v2_5dev18IsScalarEqualToOneIfEEbT_.exit.thread, label %_ZN19OpenColorIO_v2_5dev18IsScalarEqualToOneIfEEbT_.exit

_ZN19OpenColorIO_v2_5dev18IsScalarEqualToOneIfEEbT_.exit: ; preds = %.lr.ph
  %8 = tail call float @llvm.fabs.f32(float %4)
  %9 = fneg float %8
  %10 = bitcast float %9 to i32
  %11 = bitcast float %8 to i32
  %12 = sub nuw i32 -2147483648, %11
  %13 = icmp slt i32 %5, 0
  %14 = select i1 %13, i32 %12, i32 %10
  %15 = icmp ult i32 %14, -1082130432
  %16 = sub nuw i32 -1082130432, %14
  %17 = add nsw i32 %14, 1082130432
  %18 = select i1 %15, i32 %16, i32 %17
  %19 = icmp ult i32 %18, 3
  br i1 %19, label %_ZN19OpenColorIO_v2_5dev18IsScalarEqualToOneIfEEbT_.exit._crit_edge, label %_ZN19OpenColorIO_v2_5dev18IsScalarEqualToOneIfEEbT_.exit.thread

_ZN19OpenColorIO_v2_5dev18IsScalarEqualToOneIfEEbT_.exit.thread: ; preds = %.lr.ph, %_ZN19OpenColorIO_v2_5dev18IsScalarEqualToOneIfEEbT_.exit
  %indvars.iv.next = add nuw nsw i64 %indvars.iv, 1
  %exitcond.not = icmp eq i64 %indvars.iv.next, %wide.trip.count
  br i1 %exitcond.not, label %_ZN19OpenColorIO_v2_5dev18IsScalarEqualToOneIfEEbT_.exit._crit_edge, label %.lr.ph, !llvm.loop !21

_ZN19OpenColorIO_v2_5dev18IsScalarEqualToOneIfEEbT_.exit._crit_edge: ; preds = %_ZN19OpenColorIO_v2_5dev18IsScalarEqualToOneIfEEbT_.exit.thread, %_ZN19OpenColorIO_v2_5dev18IsScalarEqualToOneIfEEbT_.exit, %2
  %.not.lcssa = phi i1 [ false, %2 ], [ true, %_ZN19OpenColorIO_v2_5dev18IsScalarEqualToOneIfEEbT_.exit ], [ false, %_ZN19OpenColorIO_v2_5dev18IsScalarEqualToOneIfEEbT_.exit.thread ]
  ret i1 %.not.lcssa
}